Certificate:
    Data:
        Version: 3 (0x2)
        Serial Number:
            8c:8b:b3:00:73:b0:68:2a
        Signature Algorithm: sha1WithRSAEncryption
        Issuer: C=SG, ST=.., O=DemoCA, CN=DemoCA Certificate Master/emailAddress=certmaster@democa.dom
        Validity
            Not Before: Nov 11 11:03:18 2008 GMT
            Not After : Nov 11 11:03:18 2011 GMT
        Subject: C=SG, ST=.., O=DemoCA, CN=DemoCA Certificate Master/emailAddress=certmaster@democa.dom
        Subject Public Key Info:
            Public Key Algorithm: rsaEncryption
            RSA Public Key: (1024 bit)
                Modulus (1024 bit):
                    00:ed:62:d7:f1:91:68:09:7d:d2:e0:63:24:0a:4f:
                    25:a9:e5:79:15:71:94:2f:f2:81:ef:59:10:f0:0f:
                    22:be:78:20:0b:a9:f1:36:c0:fa:8f:43:e0:2c:46:
                    25:6d:19:b4:ad:6b:2c:6c:0b:8d:cd:65:a4:0e:d5:
                    61:80:59:b9:a3:9f:5c:06:16:26:39:10:bd:f3:57:
                    c9:0d:d5:c2:40:7d:41:4b:e6:b3:2e:da:72:ee:39:
                    bb:75:2a:ce:66:54:35:3d:14:9a:07:e3:96:14:bb:
                    35:d8:11:82:5c:fd:0c:d3:36:8e:bf:b2:80:56:39:
                    17:74:2b:5e:37:a8:94:00:9d
                Exponent: 65537 (0x10001)
        X509v3 extensions:
            X509v3 Subject Key Identifier: 
                D4:00:78:6E:83:2E:77:40:57:7E:9F:42:94:F3:82:F5:59:4B:AF:1C
            X509v3 Authority Key Identifier: 
                keyid:D4:00:78:6E:83:2E:77:40:57:7E:9F:42:94:F3:82:F5:59:4B:AF:1C
                DirName:/C=SG/ST=../O=DemoCA/CN=DemoCA Certificate Master/emailAddress=certmaster@democa.dom
                serial:8C:8B:B3:00:73:B0:68:2A

            X509v3 Basic Constraints: 
                CA:TRUE
    Signature Algorithm: sha1WithRSAEncryption
        34:bc:6f:22:db:2b:c8:b5:14:29:7c:be:24:96:f0:f8:1c:66:
        07:85:bd:c8:c0:18:f3:e3:ac:53:0b:bb:c3:d6:a1:c6:34:a4:
        12:7a:b7:66:7f:06:b3:e1:6c:39:5d:9b:67:8d:03:bd:3e:4f:
        58:cd:57:fc:31:b7:51:6b:f3:89:17:2a:bc:fd:5a:c6:c8:ea:
        f3:41:f0:c9:d8:31:5f:c4:ae:ca:6f:aa:f6:31:3a:2a:4a:5b:
        62:e6:bf:e9:12:c0:8a:ff:b8:de:1d:8e:e9:f1:27:dd:73:37:
        da:63:a6:8a:2d:15:dd:dd:86:ce:f5:bd:ce:6e:b6:d7:b8:6c:
        5c:44
-----BEGIN CERTIFICATE-----
MIIDQzCCAqygAwIBAgIJAIyLswBzsGgqMA0GCSqGSIb3DQEBBQUAMHUxCzAJBgNV
BAYTAlNHMQswCQYDVQQIEwIuLjEPMA0GA1UEChMGRGVtb0NBMSIwIAYDVQQDExlE
ZW1vQ0EgQ2VydGlmaWNhdGUgTWFzdGVyMSQwIgYJKoZIhvcNAQkBFhVjZXJ0bWFz
dGVyQGRlbW9jYS5kb20wHhcNMDgxMTExMTEwMzE4WhcNMTExMTExMTEwMzE4WjB1
MQswCQYDVQQGEwJTRzELMAkGA1UECBMCLi4xDzANBgNVBAoTBkRlbW9DQTEiMCAG
A1UEAxMZRGVtb0NBIENlcnRpZmljYXRlIE1hc3RlcjEkMCIGCSqGSIb3DQEJARYV
Y2VydG1hc3RlckBkZW1vY2EuZG9tMIGfMA0GCSqGSIb3DQEBAQUAA4GNADCBiQKB
gQDtYtfxkWgJfdLgYyQKTyWp5XkVcZQv8oHvWRDwDyK+eCALqfE2wPqPQ+AsRiVt
GbStayxsC43NZaQO1WGAWbmjn1wGFiY5EL3zV8kN1cJAfUFL5rMu2nLuObt1Ks5m
VDU9FJoH45YUuzXYEYJc/QzTNo6/soBWORd0K143qJQAnQIDAQABo4HaMIHXMB0G
A1UdDgQWBBTUAHhugy53QFd+n0KU84L1WUuvHDCBpwYDVR0jBIGfMIGcgBTUAHhu
gy53QFd+n0KU84L1WUuvHKF5pHcwdTELMAkGA1UEBhMCU0cxCzAJBgNVBAgTAi4u
MQ8wDQYDVQQKEwZEZW1vQ0ExIjAgBgNVBAMTGURlbW9DQSBDZXJ0aWZpY2F0ZSBN
YXN0ZXIxJDAiBgkqhkiG9w0BCQEWFWNlcnRtYXN0ZXJAZGVtb2NhLmRvbYIJAIyL
swBzsGgqMAwGA1UdEwQFMAMBAf8wDQYJKoZIhvcNAQEFBQADgYEANLxvItsryLUU
KXy+JJbw+BxmB4W9yMAY8+OsUwu7w9ahxjSkEnq3Zn8Gs+FsOV2bZ40DvT5PWM1X
/DG3UWvziRcqvP1axsjq80HwydgxX8Suym+q9jE6KkpbYua/6RLAiv+43h2O6fEn
3XM32mOmii0V3d2GzvW9zm6217hsXEQ=
-----END CERTIFICATE-----
